; Function Attrs: mustprogress uwtable
define internal void @_ZL47deadline_client_start_transport_stream_op_batchP17grpc_call_elementP30grpc_transport_stream_op_batch(ptr noundef %elem, ptr noundef %op) #3 {
entry:
  %call_data = getelementptr inbounds i8, ptr %elem, i64 16
  %0 = load ptr, ptr %call_data, align 8
  %cancel_stream.i = getelementptr inbounds i8, ptr %op, i64 16
  %bf.load.i = load i8, ptr %cancel_stream.i, align 8
  %1 = and i8 %bf.load.i, 64
  %bf.cast.not.i = icmp eq i8 %1, 0
  br i1 %bf.cast.not.i, label %if.else.i, label %if.then.i

if.then.i:                                        ; preds = %entry
  %timer_state.i.i = getelementptr inbounds i8, ptr %0, i64 32
  %2 = load ptr, ptr %timer_state.i.i, align 8
  %cmp.not.i.i = icmp eq ptr %2, null
  br i1 %cmp.not.i.i, label %_Z58grpc_deadline_state_client_start_transport_stream_op_batchP19grpc_deadline_stateP30grpc_transport_stream_op_batch.exit, label %if.then.i.i

if.then.i.i:                                      ; preds = %if.then.i
  %timer_.i.i.i = getelementptr inbounds i8, ptr %2, i64 8
  tail call void @_Z17grpc_timer_cancelP10grpc_timer(ptr noundef nonnull %timer_.i.i.i)
  store ptr null, ptr %timer_state.i.i, align 8
  br label %_Z58grpc_deadline_state_client_start_transport_stream_op_batchP19grpc_deadline_stateP30grpc_transport_stream_op_batch.exit

if.else.i:                                        ; preds = %entry
  %3 = and i8 %bf.load.i, 32
  %bf.cast4.not.i = icmp eq i8 %3, 0
  br i1 %bf.cast4.not.i, label %_Z58grpc_deadline_state_client_start_transport_stream_op_batchP19grpc_deadline_stateP30grpc_transport_stream_op_batch.exit, label %if.then5.i

if.then5.i:                                       ; preds = %if.else.i
  %payload.i.i = getelementptr inbounds i8, ptr %op, i64 8
  %4 = load ptr, ptr %payload.i.i, align 8
  %recv_trailing_metadata_ready.i.i = getelementptr inbounds i8, ptr %4, i64 112
  %5 = load ptr, ptr %recv_trailing_metadata_ready.i.i, align 8
  %original_recv_trailing_metadata_ready.i.i = getelementptr inbounds i8, ptr %0, i64 72
  store ptr %5, ptr %original_recv_trailing_metadata_ready.i.i, align 8
  %recv_trailing_metadata_ready1.i.i = getelementptr inbounds i8, ptr %0, i64 40
  %cb1.i.i.i = getelementptr inbounds i8, ptr %0, i64 48
  store ptr @_ZL28recv_trailing_metadata_readyPvN4absl12lts_202308026StatusE, ptr %cb1.i.i.i, align 8
  %cb_arg2.i.i.i = getelementptr inbounds i8, ptr %0, i64 56
  store ptr %0, ptr %cb_arg2.i.i.i, align 8
  %error_data.i.i.i = getelementptr inbounds i8, ptr %0, i64 64
  store i64 0, ptr %error_data.i.i.i, align 8
  %6 = load ptr, ptr %payload.i.i, align 8
  %recv_trailing_metadata_ready5.i.i = getelementptr inbounds i8, ptr %6, i64 112
  store ptr %recv_trailing_metadata_ready1.i.i, ptr %recv_trailing_metadata_ready5.i.i, align 8
  br label %_Z58grpc_deadline_state_client_start_transport_stream_op_batchP19grpc_deadline_stateP30grpc_transport_stream_op_batch.exit

_Z58grpc_deadline_state_client_start_transport_stream_op_batchP19grpc_deadline_stateP30grpc_transport_stream_op_batch.exit: ; preds = %if.then.i, %if.then.i.i, %if.else.i, %if.then5.i
  tail call void @_Z17grpc_call_next_opP17grpc_call_elementP30grpc_transport_stream_op_batch(ptr noundef nonnull %elem, ptr noundef nonnull %op)
  ret void
}